target datalayout = "e-m:e-p270:32:32-p271:32:32-p272:64:64-i64:64-i128:128-f80:128-n8:16:32:64-S128"
target triple = "x86_64-pc-linux-gnu"

@.str.233 = private unnamed_addr constant [2 x i8] c"\0A\00", align 1
@.str.463 = private unnamed_addr constant [20 x i8] c"    ls [selection]\0A\00", align 1
@.str.464 = private unnamed_addr constant [67 x i8] c"When no active module is selected, this prints a list of modules.\0A\00", align 1
@.str.465 = private unnamed_addr constant [81 x i8] c"When an active module is selected, this prints a list of objects in the module.\0A\00", align 1

; Function Attrs: mustprogress uwtable
define internal void @_ZN12_GLOBAL__N_16LsPass4helpEv(ptr noundef nonnull align 8 dereferenceable(104) %0) unnamed_addr #5 align 2 {
  %2 = alloca ptr, align 8
  store ptr %0, ptr %2, align 8, !tbaa !131
  call void (ptr, ...) @_ZN5Yosys3logEPKcz(ptr noundef @.str.233)
  call void (ptr, ...) @_ZN5Yosys3logEPKcz(ptr noundef @.str.463)
  call void (ptr, ...) @_ZN5Yosys3logEPKcz(ptr noundef @.str.233)
  call void (ptr, ...) @_ZN5Yosys3logEPKcz(ptr noundef @.str.464)
  call void (ptr, ...) @_ZN5Yosys3logEPKcz(ptr noundef @.str.233)
  call void (ptr, ...) @_ZN5Yosys3logEPKcz(ptr noundef @.str.465)
  call void (ptr, ...) @_ZN5Yosys3logEPKcz(ptr noundef @.str.233)
  ret void
}